; Function Attrs: nounwind uwtable
define zeroext range(i8 0, 2) i8 @l_Std_DHashMap_Internal_AssocList_contains___at_Std_Sat_AIG_mkGateCached_go___spec__2___rarg(ptr noundef %0, ptr noundef %1, ptr noundef %2) local_unnamed_addr #1 {
  %4 = ptrtoint ptr %1 to i64
  %5 = and i64 %4, 1
  %.not65 = icmp eq i64 %5, 0
  %6 = ptrtoint ptr %0 to i64
  %7 = and i64 %6, 1
  %.not66 = icmp eq i64 %7, 0
  br label %lean_dec.exit

lean_dec.exit:                                    ; preds = %lean_dec.exit28, %3
  %.024 = phi ptr [ %2, %3 ], [ %44, %lean_dec.exit28 ]
  %8 = ptrtoint ptr %.024 to i64
  %9 = and i64 %8, 1
  %.not.i47 = icmp eq i64 %9, 0
  br i1 %.not.i47, label %13, label %10

10:                                               ; preds = %lean_dec.exit
  %11 = lshr i64 %8, 1
  %12 = trunc i64 %11 to i32
  br label %lean_obj_tag.exit

13:                                               ; preds = %lean_dec.exit
  %14 = getelementptr i8, ptr %.024, i64 4
  %.val.i = load i32, ptr %14, align 4
  %15 = lshr i32 %.val.i, 24
  br label %lean_obj_tag.exit

lean_obj_tag.exit:                                ; preds = %10, %13
  %.0.i = phi i32 [ %12, %10 ], [ %15, %13 ]
  %16 = icmp eq i32 %.0.i, 0
  br i1 %16, label %17, label %32

17:                                               ; preds = %lean_obj_tag.exit
  br i1 %.not65, label %18, label %lean_dec.exit31

18:                                               ; preds = %17
  %19 = load i32, ptr %1, align 4, !tbaa !4
  %20 = icmp sgt i32 %19, 1
  br i1 %20, label %21, label %23, !prof !11

21:                                               ; preds = %18
  %22 = add nsw i32 %19, -1
  store i32 %22, ptr %1, align 4, !tbaa !4
  br label %lean_dec.exit31

23:                                               ; preds = %18
  %.not.i = icmp eq i32 %19, 0
  br i1 %.not.i, label %lean_dec.exit31, label %24

24:                                               ; preds = %23
  tail call void @lean_dec_ref_cold(ptr noundef nonnull %1) #4
  br label %lean_dec.exit31

lean_dec.exit31:                                  ; preds = %24, %23, %21, %17
  br i1 %.not66, label %25, label %lean_dec.exit30

25:                                               ; preds = %lean_dec.exit31
  %26 = load i32, ptr %0, align 4, !tbaa !4
  %27 = icmp sgt i32 %26, 1
  br i1 %27, label %28, label %30, !prof !11

28:                                               ; preds = %25
  %29 = add nsw i32 %26, -1
  store i32 %29, ptr %0, align 4, !tbaa !4
  br label %lean_dec.exit30

30:                                               ; preds = %25
  %.not.i35 = icmp eq i32 %26, 0
  br i1 %.not.i35, label %lean_dec.exit30, label %31

31:                                               ; preds = %30
  tail call void @lean_dec_ref_cold(ptr noundef nonnull %0) #4
  br label %lean_dec.exit30

32:                                               ; preds = %lean_obj_tag.exit
  %33 = getelementptr inbounds nuw i8, ptr %.024, i64 8
  %34 = load ptr, ptr %33, align 8, !tbaa !9
  %35 = ptrtoint ptr %34 to i64
  %36 = and i64 %35, 1
  %.not = icmp eq i64 %36, 0
  br i1 %.not, label %37, label %lean_inc.exit34

37:                                               ; preds = %32
  %.val.i48 = load i32, ptr %34, align 4, !tbaa !4
  %38 = icmp sgt i32 %.val.i48, 0
  br i1 %38, label %39, label %41, !prof !11

39:                                               ; preds = %37
  %40 = add nuw i32 %.val.i48, 1
  store i32 %40, ptr %34, align 4, !tbaa !4
  br label %lean_inc.exit34

41:                                               ; preds = %37
  %.not.i49 = icmp eq i32 %.val.i48, 0
  br i1 %.not.i49, label %lean_inc.exit34, label %42

42:                                               ; preds = %41
  tail call void @lean_inc_ref_cold(ptr noundef nonnull %34) #4
  br label %lean_inc.exit34

lean_inc.exit34:                                  ; preds = %42, %41, %39, %32
  %43 = getelementptr inbounds nuw i8, ptr %.024, i64 24
  %44 = load ptr, ptr %43, align 8, !tbaa !9
  %45 = ptrtoint ptr %44 to i64
  %46 = and i64 %45, 1
  %.not63 = icmp eq i64 %46, 0
  br i1 %.not63, label %47, label %lean_inc.exit33

47:                                               ; preds = %lean_inc.exit34
  %.val.i50 = load i32, ptr %44, align 4, !tbaa !4
  %48 = icmp sgt i32 %.val.i50, 0
  br i1 %48, label %49, label %51, !prof !11

49:                                               ; preds = %47
  %50 = add nuw i32 %.val.i50, 1
  store i32 %50, ptr %44, align 4, !tbaa !4
  br label %lean_inc.exit33

51:                                               ; preds = %47
  %.not.i51 = icmp eq i32 %.val.i50, 0
  br i1 %.not.i51, label %lean_inc.exit33, label %52

52:                                               ; preds = %51
  tail call void @lean_inc_ref_cold(ptr noundef nonnull %44) #4
  br label %lean_inc.exit33

lean_inc.exit33:                                  ; preds = %52, %51, %49, %lean_inc.exit34
  br i1 %.not.i47, label %53, label %lean_dec.exit29

53:                                               ; preds = %lean_inc.exit33
  %54 = load i32, ptr %.024, align 4, !tbaa !4
  %55 = icmp sgt i32 %54, 1
  br i1 %55, label %56, label %58, !prof !11

56:                                               ; preds = %53
  %57 = add nsw i32 %54, -1
  store i32 %57, ptr %.024, align 4, !tbaa !4
  br label %lean_dec.exit29

58:                                               ; preds = %53
  %.not.i37 = icmp eq i32 %54, 0
  br i1 %.not.i37, label %lean_dec.exit29, label %59

59:                                               ; preds = %58
  tail call void @lean_dec_ref_cold(ptr noundef nonnull %.024) #4
  br label %lean_dec.exit29

lean_dec.exit29:                                  ; preds = %59, %58, %56, %lean_inc.exit33
  br i1 %.not65, label %60, label %lean_inc.exit32

60:                                               ; preds = %lean_dec.exit29
  %.val.i53 = load i32, ptr %1, align 4, !tbaa !4
  %61 = icmp sgt i32 %.val.i53, 0
  br i1 %61, label %62, label %64, !prof !11

62:                                               ; preds = %60
  %63 = add nuw i32 %.val.i53, 1
  store i32 %63, ptr %1, align 4, !tbaa !4
  br label %lean_inc.exit32

64:                                               ; preds = %60
  %.not.i54 = icmp eq i32 %.val.i53, 0
  br i1 %.not.i54, label %lean_inc.exit32, label %65

65:                                               ; preds = %64
  tail call void @lean_inc_ref_cold(ptr noundef nonnull %1) #4
  br label %lean_inc.exit32

lean_inc.exit32:                                  ; preds = %65, %64, %62, %lean_dec.exit29
  br i1 %.not66, label %66, label %lean_inc.exit

66:                                               ; preds = %lean_inc.exit32
  %.val.i56 = load i32, ptr %0, align 4, !tbaa !4
  %67 = icmp sgt i32 %.val.i56, 0
  br i1 %67, label %68, label %70, !prof !11

68:                                               ; preds = %66
  %69 = add nuw i32 %.val.i56, 1
  store i32 %69, ptr %0, align 4, !tbaa !4
  br label %lean_inc.exit

70:                                               ; preds = %66
  %.not.i57 = icmp eq i32 %.val.i56, 0
  br i1 %.not.i57, label %lean_inc.exit, label %71

71:                                               ; preds = %70
  tail call void @lean_inc_ref_cold(ptr noundef nonnull %0) #4
  br label %lean_inc.exit

lean_inc.exit:                                    ; preds = %71, %70, %68, %lean_inc.exit32
  %72 = tail call ptr @l___private_Std_Sat_AIG_Basic_0__Std_Sat_AIG_decEqDecl____x40_Std_Sat_AIG_Basic___hyg_793____rarg(ptr noundef %0, ptr noundef %34, ptr noundef %1) #4
  %73 = ptrtoint ptr %72 to i64
  %74 = and i64 %73, 1
  %.not67 = icmp eq i64 %74, 0
  br i1 %.not67, label %75, label %lean_dec.exit28

75:                                               ; preds = %lean_inc.exit
  %76 = load i32, ptr %72, align 4, !tbaa !4
  %77 = icmp sgt i32 %76, 1
  br i1 %77, label %78, label %80, !prof !11

78:                                               ; preds = %75
  %79 = add nsw i32 %76, -1
  store i32 %79, ptr %72, align 4, !tbaa !4
  br label %lean_dec.exit28

80:                                               ; preds = %75
  %.not.i39 = icmp eq i32 %76, 0
  br i1 %.not.i39, label %lean_dec.exit28, label %81

81:                                               ; preds = %80
  tail call void @lean_dec_ref_cold(ptr noundef nonnull %72) #4
  br label %lean_dec.exit28

lean_dec.exit28:                                  ; preds = %81, %80, %78, %lean_inc.exit
  %82 = and i64 %73, 510
  %83 = icmp eq i64 %82, 0
  br i1 %83, label %lean_dec.exit, label %84

84:                                               ; preds = %lean_dec.exit28
  br i1 %.not63, label %85, label %lean_dec.exit27

85:                                               ; preds = %84
  %86 = load i32, ptr %44, align 4, !tbaa !4
  %87 = icmp sgt i32 %86, 1
  br i1 %87, label %88, label %90, !prof !11

88:                                               ; preds = %85
  %89 = add nsw i32 %86, -1
  store i32 %89, ptr %44, align 4, !tbaa !4
  br label %lean_dec.exit27

90:                                               ; preds = %85
  %.not.i41 = icmp eq i32 %86, 0
  br i1 %.not.i41, label %lean_dec.exit27, label %91

91:                                               ; preds = %90
  tail call void @lean_dec_ref_cold(ptr noundef nonnull %44) #4
  br label %lean_dec.exit27

lean_dec.exit27:                                  ; preds = %91, %90, %88, %84
  br i1 %.not65, label %92, label %lean_dec.exit26

92:                                               ; preds = %lean_dec.exit27
  %93 = load i32, ptr %1, align 4, !tbaa !4
  %94 = icmp sgt i32 %93, 1
  br i1 %94, label %95, label %97, !prof !11

95:                                               ; preds = %92
  %96 = add nsw i32 %93, -1
  store i32 %96, ptr %1, align 4, !tbaa !4
  br label %lean_dec.exit26

97:                                               ; preds = %92
  %.not.i43 = icmp eq i32 %93, 0
  br i1 %.not.i43, label %lean_dec.exit26, label %98

98:                                               ; preds = %97
  tail call void @lean_dec_ref_cold(ptr noundef nonnull %1) #4
  br label %lean_dec.exit26

lean_dec.exit26:                                  ; preds = %98, %97, %95, %lean_dec.exit27
  br i1 %.not66, label %99, label %lean_dec.exit30

99:                                               ; preds = %lean_dec.exit26
  %100 = load i32, ptr %0, align 4, !tbaa !4
  %101 = icmp sgt i32 %100, 1
  br i1 %101, label %102, label %104, !prof !11

102:                                              ; preds = %99
  %103 = add nsw i32 %100, -1
  store i32 %103, ptr %0, align 4, !tbaa !4
  br label %lean_dec.exit30

104:                                              ; preds = %99
  %.not.i45 = icmp eq i32 %100, 0
  br i1 %.not.i45, label %lean_dec.exit30, label %105

105:                                              ; preds = %104
  tail call void @lean_dec_ref_cold(ptr noundef nonnull %0) #4
  br label %lean_dec.exit30

lean_dec.exit30:                                  ; preds = %lean_dec.exit26, %102, %104, %105, %lean_dec.exit31, %28, %30, %31
  %.1 = phi i8 [ 0, %31 ], [ 0, %30 ], [ 0, %28 ], [ 0, %lean_dec.exit31 ], [ 1, %105 ], [ 1, %104 ], [ 1, %102 ], [ 1, %lean_dec.exit26 ]
  ret i8 %.1
}